target datalayout = "e-m:e-p270:32:32-p271:32:32-p272:64:64-i64:64-i128:128-f80:128-n8:16:32:64-S128"
target triple = "x86_64-pc-linux-gnu"

%struct.H5_user_cb_state_t = type { %struct.H5E_user_cb_state_t }
%struct.H5E_user_cb_state_t = type { i32, %union.anon, ptr }
%union.anon = type { ptr }
%struct.H5FD_t = type { i64, ptr, i64, i32, i64, i64, i64, i64, i64, i8 }
%struct.H5FD_class_t = type { i32, i32, ptr, i64, i32, ptr, ptr, ptr, ptr, i64, ptr, ptr, ptr, i64, ptr, ptr, ptr, ptr, ptr, ptr, ptr, ptr, ptr, ptr, ptr, ptr, ptr, ptr, ptr, ptr, ptr, ptr, ptr, ptr, ptr, ptr, ptr, ptr, ptr, [7 x i32] }

@H5FD_init_g = external global i8, align 1
@H5_libterm_g = external global i8, align 1
@.str = private unnamed_addr constant [101 x i8] c"generated/home/dtcxzyw/WorkSpace/Projects/compilers/llvm-opt-benchmark/bench/hdf5/hdf5/src/H5FDint.c\00", align 1
@H5E_CANTINIT_g = external global i64, align 8
@H5E_FUNC_g = external global i64, align 8
@.str.6 = private unnamed_addr constant [32 x i8] c"interface initialization failed\00", align 1
@H5E_LIB_g = external global i64, align 8
@H5E_CANTSET_g = external global i64, align 8
@.str.7 = private unnamed_addr constant [37 x i8] c"preparation for user callback failed\00", align 1
@H5E_CANTRESTORE_g = external global i64, align 8
@H5E_VFL_g = external global i64, align 8
@__func__.H5FD_get_eof = private unnamed_addr constant [13 x i8] c"H5FD_get_eof\00", align 1
@H5E_CANTGET_g = external global i64, align 8
@.str.29 = private unnamed_addr constant [30 x i8] c"driver get_eof request failed\00", align 1

; Function Attrs: nounwind uwtable
define i64 @H5FD_get_eof(ptr noundef %0, i32 noundef %1) #0 {
  %3 = alloca i64, align 8
  %4 = alloca ptr, align 8
  %5 = alloca i32, align 4
  %6 = alloca i64, align 8
  %7 = alloca i8, align 1
  %8 = alloca %struct.H5_user_cb_state_t, align 8
  %9 = alloca i32, align 4
  store ptr %0, ptr %4, align 8, !tbaa !3
  store i32 %1, ptr %5, align 4, !tbaa !12
  call void @llvm.lifetime.start.p0(i64 8, ptr %6) #8
  store i64 -1, ptr %6, align 8, !tbaa !10
  call void @llvm.lifetime.start.p0(i64 1, ptr %7) #8
  store i8 0, ptr %7, align 1, !tbaa !14
  %10 = load i8, ptr @H5FD_init_g, align 1, !tbaa !14, !range !16, !noundef !17
  %11 = trunc i8 %10 to i1
  br i1 %11, label %16, label %12

12:                                               ; preds = %2
  %13 = load i8, ptr @H5_libterm_g, align 1, !tbaa !14, !range !16, !noundef !17
  %14 = trunc i8 %13 to i1
  %15 = xor i1 %14, true
  br label %16

16:                                               ; preds = %12, %2
  %17 = phi i1 [ false, %2 ], [ %15, %12 ]
  %18 = xor i1 %17, true
  %19 = xor i1 %18, true
  %20 = zext i1 %19 to i32
  %21 = sext i32 %20 to i64
  %22 = call i64 @llvm.expect.i64(i64 %21, i64 0)
  %23 = icmp ne i64 %22, 0
  br i1 %23, label %24, label %47

24:                                               ; preds = %16
  store i8 1, ptr @H5FD_init_g, align 1, !tbaa !14
  %25 = call i32 @H5FD__init_package()
  %26 = icmp slt i32 %25, 0
  br i1 %26, label %27, label %46

27:                                               ; preds = %24
  store i8 0, ptr @H5FD_init_g, align 1, !tbaa !14
  br label %28

28:                                               ; preds = %27
  br label %29

29:                                               ; preds = %28
  br label %30

30:                                               ; preds = %29
  %31 = load i64, ptr @H5E_FUNC_g, align 8, !tbaa !10
  %32 = load i64, ptr @H5E_CANTINIT_g, align 8, !tbaa !10
  %33 = call i32 (ptr, ptr, i32, i64, i64, ptr, ...) @H5E_printf_stack(ptr noundef @.str, ptr noundef @__func__.H5FD_get_eof, i32 noundef 2494, i64 noundef %31, i64 noundef %32, ptr noundef @.str.6)
  br label %34

34:                                               ; preds = %30
  br label %35

35:                                               ; preds = %34
  store i8 1, ptr %7, align 1, !tbaa !14
  %36 = load i8, ptr %7, align 1, !tbaa !14, !range !16, !noundef !17
  %37 = trunc i8 %36 to i1
  %38 = zext i1 %37 to i8
  store i8 %38, ptr %7, align 1, !tbaa !14
  br label %39

39:                                               ; preds = %35
  br label %40

40:                                               ; preds = %39
  br label %41

41:                                               ; preds = %40
  store i64 -1, ptr %6, align 8, !tbaa !10
  br label %157

42:                                               ; No predecessors!
  br label %43

43:                                               ; preds = %42
  br label %44

44:                                               ; preds = %43
  br label %45

45:                                               ; preds = %44
  br label %46

46:                                               ; preds = %45, %24
  br label %47

47:                                               ; preds = %46, %16
  %48 = load i8, ptr @H5FD_init_g, align 1, !tbaa !14, !range !16, !noundef !17
  %49 = trunc i8 %48 to i1
  br i1 %49, label %54, label %50

50:                                               ; preds = %47
  %51 = load i8, ptr @H5_libterm_g, align 1, !tbaa !14, !range !16, !noundef !17
  %52 = trunc i8 %51 to i1
  %53 = xor i1 %52, true
  br label %54

54:                                               ; preds = %50, %47
  %55 = phi i1 [ true, %47 ], [ %53, %50 ]
  %56 = xor i1 %55, true
  %57 = xor i1 %56, true
  %58 = zext i1 %57 to i32
  %59 = sext i32 %58 to i64
  %60 = call i64 @llvm.expect.i64(i64 %59, i64 1)
  %61 = icmp ne i64 %60, 0
  br i1 %61, label %62, label %158

62:                                               ; preds = %54
  %63 = load ptr, ptr %4, align 8, !tbaa !3
  %64 = getelementptr inbounds nuw %struct.H5FD_t, ptr %63, i32 0, i32 1
  %65 = load ptr, ptr %64, align 8, !tbaa !21
  %66 = getelementptr inbounds nuw %struct.H5FD_class_t, ptr %65, i32 0, i32 25
  %67 = load ptr, ptr %66, align 8, !tbaa !24
  %68 = icmp ne ptr %67, null
  br i1 %68, label %69, label %147

69:                                               ; preds = %62
  call void @llvm.lifetime.start.p0(i64 24, ptr %8) #8
  %70 = call i32 @H5_user_cb_prepare(ptr noundef %8)
  %71 = icmp slt i32 %70, 0
  br i1 %71, label %72, label %91

72:                                               ; preds = %69
  br label %73

73:                                               ; preds = %72
  br label %74

74:                                               ; preds = %73
  br label %75

75:                                               ; preds = %74
  %76 = load i64, ptr @H5E_LIB_g, align 8, !tbaa !10
  %77 = load i64, ptr @H5E_CANTSET_g, align 8, !tbaa !10
  %78 = call i32 (ptr, ptr, i32, i64, i64, ptr, ...) @H5E_printf_stack(ptr noundef @.str, ptr noundef @__func__.H5FD_get_eof, i32 noundef 2501, i64 noundef %76, i64 noundef %77, ptr noundef @.str.7)
  br label %79

79:                                               ; preds = %75
  br label %80

80:                                               ; preds = %79
  store i8 1, ptr %7, align 1, !tbaa !14
  %81 = load i8, ptr %7, align 1, !tbaa !14, !range !16, !noundef !17
  %82 = trunc i8 %81 to i1
  %83 = zext i1 %82 to i8
  store i8 %83, ptr %7, align 1, !tbaa !14
  br label %84

84:                                               ; preds = %80
  br label %85

85:                                               ; preds = %84
  br label %86

86:                                               ; preds = %85
  store i64 -1, ptr %6, align 8, !tbaa !10
  store i32 10, ptr %9, align 4
  br label %122

87:                                               ; No predecessors!
  br label %88

88:                                               ; preds = %87
  br label %89

89:                                               ; preds = %88
  br label %90

90:                                               ; preds = %89
  br label %91

91:                                               ; preds = %90, %69
  %92 = load ptr, ptr %4, align 8, !tbaa !3
  %93 = getelementptr inbounds nuw %struct.H5FD_t, ptr %92, i32 0, i32 1
  %94 = load ptr, ptr %93, align 8, !tbaa !21
  %95 = getelementptr inbounds nuw %struct.H5FD_class_t, ptr %94, i32 0, i32 25
  %96 = load ptr, ptr %95, align 8, !tbaa !24
  %97 = load ptr, ptr %4, align 8, !tbaa !3
  %98 = load i32, ptr %5, align 4, !tbaa !12
  %99 = call i64 %96(ptr noundef %97, i32 noundef %98)
  store i64 %99, ptr %6, align 8, !tbaa !10
  %100 = call i32 @H5_user_cb_restore(ptr noundef %8)
  %101 = icmp slt i32 %100, 0
  br i1 %101, label %102, label %121

102:                                              ; preds = %91
  br label %103

103:                                              ; preds = %102
  br label %104

104:                                              ; preds = %103
  br label %105

105:                                              ; preds = %104
  %106 = load i64, ptr @H5E_LIB_g, align 8, !tbaa !10
  %107 = load i64, ptr @H5E_CANTRESTORE_g, align 8, !tbaa !10
  %108 = call i32 (ptr, ptr, i32, i64, i64, ptr, ...) @H5E_printf_stack(ptr noundef @.str, ptr noundef @__func__.H5FD_get_eof, i32 noundef 2505, i64 noundef %106, i64 noundef %107, ptr noundef @.str.7)
  br label %109

109:                                              ; preds = %105
  br label %110

110:                                              ; preds = %109
  store i8 1, ptr %7, align 1, !tbaa !14
  %111 = load i8, ptr %7, align 1, !tbaa !14, !range !16, !noundef !17
  %112 = trunc i8 %111 to i1
  %113 = zext i1 %112 to i8
  store i8 %113, ptr %7, align 1, !tbaa !14
  br label %114

114:                                              ; preds = %110
  br label %115

115:                                              ; preds = %114
  br label %116

116:                                              ; preds = %115
  store i64 -1, ptr %6, align 8, !tbaa !10
  store i32 10, ptr %9, align 4
  br label %122

117:                                              ; No predecessors!
  br label %118

118:                                              ; preds = %117
  br label %119

119:                                              ; preds = %118
  br label %120

120:                                              ; preds = %119
  br label %121

121:                                              ; preds = %120, %91
  store i32 0, ptr %9, align 4
  br label %122

122:                                              ; preds = %116, %86, %121
  call void @llvm.lifetime.end.p0(i64 24, ptr %8) #8
  %123 = load i32, ptr %9, align 4
  switch i32 %123, label %160 [
    i32 0, label %124
    i32 10, label %157
  ]

124:                                              ; preds = %122
  %125 = load i64, ptr %6, align 8, !tbaa !10
  %126 = icmp ne i64 %125, -1
  br i1 %126, label %146, label %127

127:                                              ; preds = %124
  br label %128

128:                                              ; preds = %127
  br label %129

129:                                              ; preds = %128
  br label %130

130:                                              ; preds = %129
  %131 = load i64, ptr @H5E_VFL_g, align 8, !tbaa !10
  %132 = load i64, ptr @H5E_CANTGET_g, align 8, !tbaa !10
  %133 = call i32 (ptr, ptr, i32, i64, i64, ptr, ...) @H5E_printf_stack(ptr noundef @.str, ptr noundef @__func__.H5FD_get_eof, i32 noundef 2507, i64 noundef %131, i64 noundef %132, ptr noundef @.str.29)
  br label %134

134:                                              ; preds = %130
  br label %135

135:                                              ; preds = %134
  store i8 1, ptr %7, align 1, !tbaa !14
  %136 = load i8, ptr %7, align 1, !tbaa !14, !range !16, !noundef !17
  %137 = trunc i8 %136 to i1
  %138 = zext i1 %137 to i8
  store i8 %138, ptr %7, align 1, !tbaa !14
  br label %139

139:                                              ; preds = %135
  br label %140

140:                                              ; preds = %139
  br label %141

141:                                              ; preds = %140
  store i64 -1, ptr %6, align 8, !tbaa !10
  br label %157

142:                                              ; No predecessors!
  br label %143

143:                                              ; preds = %142
  br label %144

144:                                              ; preds = %143
  br label %145

145:                                              ; preds = %144
  br label %146

146:                                              ; preds = %145, %124
  br label %151

147:                                              ; preds = %62
  %148 = load ptr, ptr %4, align 8, !tbaa !3
  %149 = getelementptr inbounds nuw %struct.H5FD_t, ptr %148, i32 0, i32 5
  %150 = load i64, ptr %149, align 8, !tbaa !27
  store i64 %150, ptr %6, align 8, !tbaa !10
  br label %151

151:                                              ; preds = %147, %146
  %152 = load ptr, ptr %4, align 8, !tbaa !3
  %153 = getelementptr inbounds nuw %struct.H5FD_t, ptr %152, i32 0, i32 6
  %154 = load i64, ptr %153, align 8, !tbaa !28
  %155 = load i64, ptr %6, align 8, !tbaa !10
  %156 = sub i64 %155, %154
  store i64 %156, ptr %6, align 8, !tbaa !10
  br label %157

157:                                              ; preds = %151, %122, %141, %41
  br label %158

158:                                              ; preds = %157, %54
  %159 = load i64, ptr %6, align 8, !tbaa !10
  store i64 %159, ptr %3, align 8
  store i32 1, ptr %9, align 4
  br label %160

160:                                              ; preds = %158, %122
  call void @llvm.lifetime.end.p0(i64 1, ptr %7) #8
  call void @llvm.lifetime.end.p0(i64 8, ptr %6) #8
  %161 = load i64, ptr %3, align 8
  ret i64 %161
}