; Function Attrs: nounwind uwtable
define i64 @H5FD_get_eof(ptr noundef %0, i32 noundef %1) local_unnamed_addr #0 {
  %3 = alloca %struct.H5_user_cb_state_t, align 8
  %4 = load i8, ptr @H5FD_init_g, align 1, !tbaa !3, !range !7, !noundef !8
  %5 = trunc nuw i8 %4 to i1
  %6 = load i8, ptr @H5_libterm_g, align 1, !range !7
  %7 = trunc nuw i8 %6 to i1
  %8 = select i1 %5, i1 true, i1 %7
  br i1 %8, label %16, label %9, !prof !9

9:                                                ; preds = %2
  store i8 1, ptr @H5FD_init_g, align 1, !tbaa !3
  %10 = tail call i32 @H5FD__init_package() #12
  %11 = icmp slt i32 %10, 0
  br i1 %11, label %12, label %._crit_edge

._crit_edge:                                      ; preds = %9
  %.pre = load i8, ptr @H5FD_init_g, align 1, !tbaa !3, !range !7
  %.pre20 = load i8, ptr @H5_libterm_g, align 1, !range !7
  %.pre21 = trunc nuw i8 %.pre to i1
  %.pre22 = trunc nuw i8 %.pre20 to i1
  br label %16

12:                                               ; preds = %9
  store i8 0, ptr @H5FD_init_g, align 1, !tbaa !3
  %13 = load i64, ptr @H5E_FUNC_g, align 8, !tbaa !10
  %14 = load i64, ptr @H5E_CANTINIT_g, align 8, !tbaa !10
  %15 = tail call i32 (ptr, ptr, i32, i64, i64, ptr, ...) @H5E_printf_stack(ptr noundef nonnull @.str, ptr noundef nonnull @__func__.H5FD_get_eof, i32 noundef 2494, i64 noundef %13, i64 noundef %14, ptr noundef nonnull @.str.6) #12
  br label %49

16:                                               ; preds = %._crit_edge, %2
  %.pre-phi23 = phi i1 [ %.pre22, %._crit_edge ], [ %7, %2 ]
  %.pre-phi = phi i1 [ %.pre21, %._crit_edge ], [ %5, %2 ]
  %17 = xor i1 %.pre-phi23, true
  %18 = select i1 %.pre-phi, i1 true, i1 %17
  br i1 %18, label %19, label %49, !prof !9

19:                                               ; preds = %16
  %20 = getelementptr inbounds nuw i8, ptr %0, i64 8
  %21 = load ptr, ptr %20, align 8, !tbaa !15
  %22 = getelementptr inbounds nuw i8, ptr %21, i64 192
  %23 = load ptr, ptr %22, align 8, !tbaa !20
  %.not = icmp eq ptr %23, null
  br i1 %.not, label %42, label %24

24:                                               ; preds = %19
  call void @llvm.lifetime.start.p0(i64 24, ptr nonnull %3) #12
  %25 = call i32 @H5_user_cb_prepare(ptr noundef nonnull %3) #12
  %26 = icmp slt i32 %25, 0
  br i1 %26, label %.thread, label %27

27:                                               ; preds = %24
  %28 = load ptr, ptr %20, align 8, !tbaa !15
  %29 = getelementptr inbounds nuw i8, ptr %28, i64 192
  %30 = load ptr, ptr %29, align 8, !tbaa !20
  %31 = call i64 %30(ptr noundef nonnull %0, i32 noundef %1) #12
  %32 = call i32 @H5_user_cb_restore(ptr noundef nonnull %3) #12
  %33 = icmp slt i32 %32, 0
  br i1 %33, label %.thread, label %37

.thread:                                          ; preds = %27, %24
  %H5E_CANTSET_g.sink = phi ptr [ @H5E_CANTSET_g, %24 ], [ @H5E_CANTRESTORE_g, %27 ]
  %.sink = phi i32 [ 2501, %24 ], [ 2505, %27 ]
  %34 = load i64, ptr @H5E_LIB_g, align 8, !tbaa !10
  %35 = load i64, ptr %H5E_CANTSET_g.sink, align 8, !tbaa !10
  %36 = call i32 (ptr, ptr, i32, i64, i64, ptr, ...) @H5E_printf_stack(ptr noundef nonnull @.str, ptr noundef nonnull @__func__.H5FD_get_eof, i32 noundef %.sink, i64 noundef %34, i64 noundef %35, ptr noundef nonnull @.str.7) #12
  call void @llvm.lifetime.end.p0(i64 24, ptr nonnull %3) #12
  br label %49

37:                                               ; preds = %27
  call void @llvm.lifetime.end.p0(i64 24, ptr nonnull %3) #12
  %.not16 = icmp eq i64 %31, -1
  br i1 %.not16, label %38, label %45

38:                                               ; preds = %37
  %39 = load i64, ptr @H5E_VFL_g, align 8, !tbaa !10
  %40 = load i64, ptr @H5E_CANTGET_g, align 8, !tbaa !10
  %41 = call i32 (ptr, ptr, i32, i64, i64, ptr, ...) @H5E_printf_stack(ptr noundef nonnull @.str, ptr noundef nonnull @__func__.H5FD_get_eof, i32 noundef 2507, i64 noundef %39, i64 noundef %40, ptr noundef nonnull @.str.29) #12
  br label %49

42:                                               ; preds = %19
  %43 = getelementptr inbounds nuw i8, ptr %0, i64 40
  %44 = load i64, ptr %43, align 8, !tbaa !23
  br label %45

45:                                               ; preds = %37, %42
  %.2 = phi i64 [ %31, %37 ], [ %44, %42 ]
  %46 = getelementptr inbounds nuw i8, ptr %0, i64 48
  %47 = load i64, ptr %46, align 8, !tbaa !24
  %48 = sub i64 %.2, %47
  br label %49

49:                                               ; preds = %.thread, %16, %45, %38, %12
  %.015 = phi i64 [ -1, %12 ], [ %48, %45 ], [ -1, %38 ], [ -1, %16 ], [ -1, %.thread ]
  ret i64 %.015
}